target datalayout = "e-m:e-p270:32:32-p271:32:32-p272:64:64-i64:64-i128:128-f80:128-n8:16:32:64-S128"
target triple = "x86_64-pc-linux-gnu"

%struct._object = type { %union.anon, ptr }
%union.anon = type { i64 }
%struct.anon.806 = type { i8 }
%struct.anon.0 = type { i32, i32 }

@.str.62 = private unnamed_addr constant [21 x i8] c"test_unicode_id_init\00", align 1
@.str.183 = private unnamed_addr constant [33 x i8] c"../cpython/Programs/_testembed.c\00", align 1
@test_unicode_id_init.PyId_test_unicode_id_init = internal global { ptr, i64, %struct.anon.806, [7 x i8] } { ptr @.str.62, i64 -1, %struct.anon.806 zeroinitializer, [7 x i8] zeroinitializer }, align 8
@.str.330 = private unnamed_addr constant [13 x i8] c"str1 != NULL\00", align 1
@__PRETTY_FUNCTION__.test_unicode_id_init = private unnamed_addr constant [31 x i8] c"int test_unicode_id_init(void)\00", align 1
@.str.331 = private unnamed_addr constant [21 x i8] c"_Py_IsImmortal(str1)\00", align 1
@.str.332 = private unnamed_addr constant [13 x i8] c"str2 != NULL\00", align 1
@.str.333 = private unnamed_addr constant [35 x i8] c"PyUnicode_Compare(str1, str2) == 0\00", align 1

; Function Attrs: alwaysinline nounwind uwtable
define internal void @Py_DECREF(ptr noundef %0) #9 {
  %2 = alloca ptr, align 8
  store ptr %0, ptr %2, align 8, !tbaa !80
  %3 = load ptr, ptr %2, align 8, !tbaa !80
  %4 = call i32 @_Py_IsImmortal(ptr noundef %3)
  %5 = icmp ne i32 %4, 0
  br i1 %5, label %6, label %7

6:                                                ; preds = %1
  br label %16

7:                                                ; preds = %1
  %8 = load ptr, ptr %2, align 8, !tbaa !80
  %9 = getelementptr inbounds nuw %struct._object, ptr %8, i32 0, i32 0
  %10 = getelementptr inbounds nuw %struct.anon.0, ptr %9, i32 0, i32 0
  %11 = load i32, ptr %10, align 8, !tbaa !100
  %12 = add i32 %11, -1
  store i32 %12, ptr %10, align 8, !tbaa !100
  %13 = icmp eq i32 %12, 0
  br i1 %13, label %14, label %16

14:                                               ; preds = %7
  %15 = load ptr, ptr %2, align 8, !tbaa !80
  call void @_Py_Dealloc(ptr noundef %15)
  br label %16

16:                                               ; preds = %6, %14, %7
  ret void
}

; Function Attrs: alwaysinline nounwind uwtable
define internal i32 @_Py_IsImmortal(ptr noundef %0) #9 {
  %2 = alloca ptr, align 8
  store ptr %0, ptr %2, align 8, !tbaa !80
  %3 = load ptr, ptr %2, align 8, !tbaa !80
  %4 = getelementptr inbounds nuw %struct._object, ptr %3, i32 0, i32 0
  %5 = getelementptr inbounds nuw %struct.anon.0, ptr %4, i32 0, i32 0
  %6 = load i32, ptr %5, align 8, !tbaa !100
  %7 = icmp slt i32 %6, 0
  %8 = zext i1 %7 to i32
  ret i32 %8
}

; Function Attrs: nounwind uwtable
define internal i32 @test_unicode_id_init() #0 {
  %1 = alloca i32, align 4
  %2 = alloca ptr, align 8
  %3 = alloca ptr, align 8
  call void @_testembed_Py_InitializeFromConfig()
  call void @Py_Finalize()
  call void @llvm.lifetime.start.p0(i64 4, ptr %1) #11
  store i32 0, ptr %1, align 4, !tbaa !4
  br label %4

4:                                                ; preds = %39, %0
  %5 = load i32, ptr %1, align 4, !tbaa !4
  %6 = icmp slt i32 %5, 3
  br i1 %6, label %8, label %7

7:                                                ; preds = %4
  call void @llvm.lifetime.end.p0(i64 4, ptr %1) #11
  br label %42

8:                                                ; preds = %4
  call void @_testembed_Py_InitializeFromConfig()
  call void @llvm.lifetime.start.p0(i64 8, ptr %2) #11
  call void @llvm.lifetime.start.p0(i64 8, ptr %3) #11
  %9 = call ptr @_PyUnicode_FromId(ptr noundef @test_unicode_id_init.PyId_test_unicode_id_init)
  store ptr %9, ptr %2, align 8, !tbaa !80
  %10 = load ptr, ptr %2, align 8, !tbaa !80
  %11 = icmp ne ptr %10, null
  br i1 %11, label %12, label %13

12:                                               ; preds = %8
  br label %15

13:                                               ; preds = %8
  call void @__assert_fail(ptr noundef @.str.330, ptr noundef @.str.183, i32 noundef 2180, ptr noundef @__PRETTY_FUNCTION__.test_unicode_id_init) #13
  unreachable

14:                                               ; No predecessors!
  br label %15

15:                                               ; preds = %14, %12
  %16 = load ptr, ptr %2, align 8, !tbaa !80
  %17 = call i32 @_Py_IsImmortal(ptr noundef %16)
  %18 = icmp ne i32 %17, 0
  br i1 %18, label %19, label %20

19:                                               ; preds = %15
  br label %22

20:                                               ; preds = %15
  call void @__assert_fail(ptr noundef @.str.331, ptr noundef @.str.183, i32 noundef 2181, ptr noundef @__PRETTY_FUNCTION__.test_unicode_id_init) #13
  unreachable

21:                                               ; No predecessors!
  br label %22

22:                                               ; preds = %21, %19
  %23 = call ptr @PyUnicode_FromString(ptr noundef @.str.62)
  store ptr %23, ptr %3, align 8, !tbaa !80
  %24 = load ptr, ptr %3, align 8, !tbaa !80
  %25 = icmp ne ptr %24, null
  br i1 %25, label %26, label %27

26:                                               ; preds = %22
  br label %29

27:                                               ; preds = %22
  call void @__assert_fail(ptr noundef @.str.332, ptr noundef @.str.183, i32 noundef 2184, ptr noundef @__PRETTY_FUNCTION__.test_unicode_id_init) #13
  unreachable

28:                                               ; No predecessors!
  br label %29

29:                                               ; preds = %28, %26
  %30 = load ptr, ptr %2, align 8, !tbaa !80
  %31 = load ptr, ptr %3, align 8, !tbaa !80
  %32 = call i32 @PyUnicode_Compare(ptr noundef %30, ptr noundef %31)
  %33 = icmp eq i32 %32, 0
  br i1 %33, label %34, label %35

34:                                               ; preds = %29
  br label %37

35:                                               ; preds = %29
  call void @__assert_fail(ptr noundef @.str.333, ptr noundef @.str.183, i32 noundef 2186, ptr noundef @__PRETTY_FUNCTION__.test_unicode_id_init) #13
  unreachable

36:                                               ; No predecessors!
  br label %37

37:                                               ; preds = %36, %34
  %38 = load ptr, ptr %3, align 8, !tbaa !80
  call void @Py_DECREF(ptr noundef %38)
  call void @Py_Finalize()
  call void @llvm.lifetime.end.p0(i64 8, ptr %3) #11
  call void @llvm.lifetime.end.p0(i64 8, ptr %2) #11
  br label %39

39:                                               ; preds = %37
  %40 = load i32, ptr %1, align 4, !tbaa !4
  %41 = add i32 %40, 1
  store i32 %41, ptr %1, align 4, !tbaa !4
  br label %4, !llvm.loop !82

42:                                               ; preds = %7
  ret i32 0
}