; Function Attrs: nounwind uwtable
define internal noundef i32 @test_unicode_id_init() #0 {
  tail call fastcc void @_testembed_Py_InitializeFromConfig()
  tail call void @Py_Finalize() #20
  br label %2

1:                                                ; preds = %Py_DECREF.exit
  ret i32 0

2:                                                ; preds = %0, %Py_DECREF.exit
  %.012 = phi i32 [ 0, %0 ], [ %21, %Py_DECREF.exit ]
  tail call fastcc void @_testembed_Py_InitializeFromConfig()
  %3 = tail call ptr @_PyUnicode_FromId(ptr noundef nonnull @test_unicode_id_init.PyId_test_unicode_id_init) #20
  %.not = icmp eq ptr %3, null
  br i1 %.not, label %4, label %5

4:                                                ; preds = %2
  tail call void @__assert_fail(ptr noundef nonnull @.str.330, ptr noundef nonnull @.str.183, i32 noundef 2180, ptr noundef nonnull @__PRETTY_FUNCTION__.test_unicode_id_init) #24
  unreachable

5:                                                ; preds = %2
  %6 = load i32, ptr %3, align 8, !tbaa !83
  %.not9 = icmp sgt i32 %6, -1
  br i1 %.not9, label %7, label %8

7:                                                ; preds = %5
  tail call void @__assert_fail(ptr noundef nonnull @.str.331, ptr noundef nonnull @.str.183, i32 noundef 2181, ptr noundef nonnull @__PRETTY_FUNCTION__.test_unicode_id_init) #24
  unreachable

8:                                                ; preds = %5
  %9 = tail call ptr @PyUnicode_FromString(ptr noundef nonnull @.str.62) #20
  %.not10 = icmp eq ptr %9, null
  br i1 %.not10, label %10, label %11

10:                                               ; preds = %8
  tail call void @__assert_fail(ptr noundef nonnull @.str.332, ptr noundef nonnull @.str.183, i32 noundef 2184, ptr noundef nonnull @__PRETTY_FUNCTION__.test_unicode_id_init) #24
  unreachable

11:                                               ; preds = %8
  %12 = tail call i32 @PyUnicode_Compare(ptr noundef nonnull %3, ptr noundef nonnull %9) #20
  %13 = icmp eq i32 %12, 0
  br i1 %13, label %15, label %14

14:                                               ; preds = %11
  tail call void @__assert_fail(ptr noundef nonnull @.str.333, ptr noundef nonnull @.str.183, i32 noundef 2186, ptr noundef nonnull @__PRETTY_FUNCTION__.test_unicode_id_init) #24
  unreachable

15:                                               ; preds = %11
  %16 = load i32, ptr %9, align 8, !tbaa !83
  %.not.i = icmp sgt i32 %16, -1
  br i1 %.not.i, label %17, label %Py_DECREF.exit

17:                                               ; preds = %15
  %18 = add nsw i32 %16, -1
  store i32 %18, ptr %9, align 8, !tbaa !83
  %19 = icmp eq i32 %18, 0
  br i1 %19, label %20, label %Py_DECREF.exit

20:                                               ; preds = %17
  tail call void @_Py_Dealloc(ptr noundef nonnull %9) #20
  br label %Py_DECREF.exit

Py_DECREF.exit:                                   ; preds = %15, %17, %20
  tail call void @Py_Finalize() #20
  %21 = add nuw nsw i32 %.012, 1
  %exitcond.not = icmp eq i32 %21, 3
  br i1 %exitcond.not, label %1, label %2, !llvm.loop !88
}